; Function Attrs: nounwind uwtable
define internal fastcc void @Ssc_ManCnfAddToFrontier(ptr noundef captures(none) %0, i32 noundef %1, ptr noundef captures(none) %2) unnamed_addr #0 {
  %4 = getelementptr i8, ptr %0, i64 40
  %.val14 = load ptr, ptr %4, align 8, !tbaa !44
  %5 = getelementptr i8, ptr %.val14, i64 8
  %.val14.val = load ptr, ptr %5, align 8, !tbaa !43
  %6 = sext i32 %1 to i64
  %7 = getelementptr inbounds i32, ptr %.val14.val, i64 %6
  %8 = load i32, ptr %7, align 4, !tbaa !47
  %.not = icmp eq i32 %8, 0
  br i1 %.not, label %9, label %60

9:                                                ; preds = %3
  %10 = getelementptr inbounds nuw i8, ptr %0, i64 24
  %11 = load ptr, ptr %10, align 8, !tbaa !3
  %12 = getelementptr i8, ptr %11, i64 32
  %.val13 = load ptr, ptr %12, align 8, !tbaa !49
  %13 = getelementptr inbounds %struct.Gia_Obj_t_, ptr %.val13, i64 %6
  %14 = getelementptr inbounds nuw i8, ptr %0, i64 68
  %15 = load i32, ptr %14, align 4, !tbaa !20
  %16 = add nsw i32 %15, 1
  store i32 %16, ptr %14, align 4, !tbaa !20
  %17 = getelementptr i8, ptr %0, i64 48
  %.val12 = load ptr, ptr %17, align 8, !tbaa !45
  %18 = getelementptr i8, ptr %.val12, i64 8
  %.val12.val = load ptr, ptr %18, align 8, !tbaa !43
  store i32 %15, ptr %7, align 4, !tbaa !47
  %19 = sext i32 %15 to i64
  %20 = getelementptr inbounds i32, ptr %.val12.val, i64 %19
  store i32 %1, ptr %20, align 4, !tbaa !47
  %21 = getelementptr inbounds nuw i8, ptr %0, i64 32
  %22 = load ptr, ptr %21, align 8, !tbaa !56
  %23 = load i32, ptr %14, align 4, !tbaa !20
  %24 = add nsw i32 %23, 100
  tail call void @sat_solver_setnvars(ptr noundef %22, i32 noundef %24) #8
  %.val15 = load i64, ptr %13, align 4
  %25 = and i64 %.val15, 2147483648
  %.not.i = icmp ne i64 %25, 0
  %26 = and i64 %.val15, 536870911
  %27 = icmp eq i64 %26, 536870911
  %narrow.i.not = or i1 %.not.i, %27
  br i1 %narrow.i.not, label %60, label %28

28:                                               ; preds = %9
  %29 = getelementptr inbounds nuw i8, ptr %2, i64 4
  %30 = load i32, ptr %29, align 4, !tbaa !40
  %31 = load i32, ptr %2, align 8, !tbaa !42
  %32 = icmp eq i32 %30, %31
  br i1 %32, label %33, label %.Vec_IntGrow.exit10_crit_edge.i

.Vec_IntGrow.exit10_crit_edge.i:                  ; preds = %28
  %.phi.trans.insert.i = getelementptr inbounds nuw i8, ptr %2, i64 8
  %.pre.i = load ptr, ptr %.phi.trans.insert.i, align 8, !tbaa !43
  br label %Vec_IntPush.exit

33:                                               ; preds = %28
  %34 = icmp slt i32 %30, 16
  br i1 %34, label %35, label %43

35:                                               ; preds = %33
  %36 = getelementptr inbounds nuw i8, ptr %2, i64 8
  %37 = load ptr, ptr %36, align 8, !tbaa !43
  %.not9.i.i = icmp eq ptr %37, null
  br i1 %.not9.i.i, label %40, label %38

38:                                               ; preds = %35
  %39 = tail call dereferenceable_or_null(64) ptr @realloc(ptr noundef nonnull %37, i64 noundef 64) #10
  br label %Vec_IntGrow.exit.i

40:                                               ; preds = %35
  %41 = tail call noalias dereferenceable_or_null(64) ptr @malloc(i64 noundef 64) #9
  br label %Vec_IntGrow.exit.i

Vec_IntGrow.exit.i:                               ; preds = %40, %38
  %42 = phi ptr [ %39, %38 ], [ %41, %40 ]
  store ptr %42, ptr %36, align 8, !tbaa !43
  store i32 16, ptr %2, align 8, !tbaa !42
  br label %Vec_IntPush.exit

43:                                               ; preds = %33
  %44 = shl nuw nsw i32 %30, 1
  %45 = getelementptr inbounds nuw i8, ptr %2, i64 8
  %46 = load ptr, ptr %45, align 8, !tbaa !43
  %.not9.i9.i = icmp eq ptr %46, null
  %47 = zext nneg i32 %44 to i64
  %48 = shl nuw nsw i64 %47, 2
  br i1 %.not9.i9.i, label %51, label %49

49:                                               ; preds = %43
  %50 = tail call ptr @realloc(ptr noundef nonnull %46, i64 noundef %48) #10
  br label %53

51:                                               ; preds = %43
  %52 = tail call noalias ptr @malloc(i64 noundef %48) #9
  br label %53

53:                                               ; preds = %51, %49
  %54 = phi ptr [ %50, %49 ], [ %52, %51 ]
  store ptr %54, ptr %45, align 8, !tbaa !43
  store i32 %44, ptr %2, align 8, !tbaa !42
  br label %Vec_IntPush.exit

Vec_IntPush.exit:                                 ; preds = %.Vec_IntGrow.exit10_crit_edge.i, %Vec_IntGrow.exit.i, %53
  %55 = phi ptr [ %.pre.i, %.Vec_IntGrow.exit10_crit_edge.i ], [ %54, %53 ], [ %42, %Vec_IntGrow.exit.i ]
  %56 = load i32, ptr %29, align 4, !tbaa !40
  %57 = add nsw i32 %56, 1
  store i32 %57, ptr %29, align 4, !tbaa !40
  %58 = sext i32 %56 to i64
  %59 = getelementptr inbounds i32, ptr %55, i64 %58
  store i32 %1, ptr %59, align 4, !tbaa !47
  br label %60

60:                                               ; preds = %9, %Vec_IntPush.exit, %3
  ret void
}